; Function Attrs: nounwind uwtable
define ptr @l_Lean_Linter_collectMacroExpansions_x3f_go___at_Lean_Linter_UnusedVariables_unusedVariables___elambda__1___spec__8(ptr noundef %0, ptr noundef %1, ptr noundef %2, ptr noundef %3, ptr noundef %4) local_unnamed_addr #1 {
  tail call void @lean_inc_heartbeat() #7
  %6 = tail call noalias ptr @mi_malloc_small(i64 noundef 32) #7
  %7 = icmp eq ptr %6, null
  br i1 %7, label %8, label %lean_alloc_closure.exit

8:                                                ; preds = %5
  tail call void @lean_internal_panic_out_of_memory() #8
  unreachable

lean_alloc_closure.exit:                          ; preds = %5
  %9 = getelementptr inbounds nuw i8, ptr %6, i64 4
  store i32 1, ptr %6, align 4, !tbaa !8
  store i32 -184549344, ptr %9, align 4
  %10 = getelementptr inbounds nuw i8, ptr %6, i64 8
  store ptr @l_Lean_Linter_collectMacroExpansions_x3f_go___at_Lean_Linter_UnusedVariables_unusedVariables___elambda__1___spec__8___lambda__2___boxed, ptr %10, align 8, !tbaa !4
  %11 = getelementptr inbounds nuw i8, ptr %6, i64 16
  store i16 8, ptr %11, align 8, !tbaa !14
  %12 = getelementptr inbounds nuw i8, ptr %6, i64 18
  store i16 1, ptr %12, align 2, !tbaa !14
  %13 = getelementptr inbounds nuw i8, ptr %6, i64 24
  store ptr %0, ptr %13, align 8, !tbaa !4
  %14 = load ptr, ptr @l_Lean_Linter_collectMacroExpansions_x3f_go___at_Lean_Linter_UnusedVariables_unusedVariables___elambda__1___spec__8___closed__1, align 8, !tbaa !4
  %15 = tail call ptr @l_Lean_Elab_InfoTree_visitM_go___at_Lean_Linter_UnusedVariables_unusedVariables___elambda__1___spec__9(ptr noundef %14, ptr noundef nonnull %6, ptr noundef nonnull inttoptr (i64 1 to ptr), ptr noundef %1, ptr noundef %2, ptr noundef %3, ptr noundef %4)
  ret ptr %15
}